target datalayout = "e-m:e-p270:32:32-p271:32:32-p272:64:64-i64:64-i128:128-f80:128-n8:16:32:64-S128"
target triple = "x86_64-pc-linux-gnu"

%struct.strvec = type { ptr, i64, i64 }
%struct.strbuf = type { i64, i64, ptr }
%struct.object_id = type { [32 x i8], i32 }
%struct.oidset = type { %struct.kh_oid_set }
%struct.kh_oid_set = type { i32, i32, i32, i32, ptr, ptr, ptr }
%struct.rev_info = type { ptr, %struct.object_array, ptr, %struct.object_array, %struct.rev_cmdline_info, %struct.list_objects_filter_options, %struct.ref_exclusions, ptr, ptr, ptr, %struct.pathspec, i32, i32, i32, i32, i64, i32, i32, %struct.date_mode, i32, i32, i32, i32, ptr, i32, i32, ptr, ptr, i32, ptr, ptr, %struct.ident_split, ptr, i32, ptr, ptr, ptr, i32, i32, i32, ptr, %struct.grep_opt, ptr, i32, i32, i64, i64, i64, i32, i32, ptr, ptr, ptr, %struct.diff_options, %struct.diff_options, ptr, %struct.decoration, %struct.decoration, %struct.decoration, %struct.display_notes_opt, ptr, ptr, ptr, ptr, ptr, i32, ptr, i32, i32, i32, %struct.decoration, ptr, ptr, ptr, ptr, ptr, ptr, ptr, i32, ptr, i32, ptr, %struct.oidset }
%struct.object_array = type { i32, i32, ptr }
%struct.rev_cmdline_info = type { i32, i32, ptr }
%struct.list_objects_filter_options = type { %struct.strbuf, i32, i8, ptr, i64, i64, i32, i64, i64, ptr }
%struct.ref_exclusions = type { %struct.string_list, %struct.strvec, i8 }
%struct.string_list = type { ptr, i64, i64, i8, ptr }
%struct.pathspec = type { i32, i8, i32, i32, ptr }
%struct.date_mode = type { i32, i32, ptr }
%struct.ident_split = type { ptr, ptr, ptr, ptr, ptr, ptr, ptr, ptr }
%struct.grep_opt = type { ptr, ptr, ptr, ptr, ptr, ptr, i32, i32, i32, i32, i32, i32, i32, i32, i32, i32, i32, i32, i32, i32, i32, i32, i32, i32, i32, i32, i32, i32, i32, i32, i32, i32, [9 x [75 x i8]], i32, i32, i32, i32, i32, i32, i32, ptr, ptr, ptr }
%struct.diff_options = type { ptr, ptr, i32, i32, ptr, i32, ptr, i64, i64, ptr, ptr, ptr, ptr, %struct.diff_flags, i32, i32, i32, i32, i32, i32, i32, i32, i32, i32, i32, i32, i32, i32, i32, i32, i32, i32, i32, i32, i32, i32, ptr, i32, ptr, i32, i32, ptr, i64, i64, i32, i32, i32, i32, ptr, i32, i32, ptr, i32, i32, ptr, ptr, i32, [3 x i8], %struct.pathspec, ptr, ptr, ptr, ptr, ptr, ptr, ptr, ptr, i32, ptr, i32, i32, ptr, ptr, i32 }
%struct.diff_flags = type { i32, i32, i32, i32, i32, i32, i32, i32, i32, i32, i32, i32, i32, i32, i32, i32, i32, i32, i32, i32, i32, i32, i32, i32, i32, i32, i32, i32, i32, i32, i32, i32, i32, i32, i32 }
%struct.display_notes_opt = type { i32, %struct.string_list }
%struct.decoration = type { ptr, i32, i32, ptr }
%struct.all_refs_cb = type { i32, i32, ptr, ptr, ptr }

@.str.36 = private unnamed_addr constant [1 x i8] zeroinitializer, align 1
@.str.39 = private unnamed_addr constant [41 x i8] c"reflog of '%s' references pruned commits\00", align 1
@is_null_oid.null_hash = internal constant [32 x i8] zeroinitializer, align 16

; Function Attrs: nounwind uwtable
define internal void @add_pending_object_with_mode(ptr noundef %0, ptr noundef %1, ptr noundef %2, i32 noundef %3) #0 {
  %5 = alloca ptr, align 8
  %6 = alloca ptr, align 8
  %7 = alloca ptr, align 8
  %8 = alloca i32, align 4
  store ptr %0, ptr %5, align 8, !tbaa !88
  store ptr %1, ptr %6, align 8, !tbaa !37
  store ptr %2, ptr %7, align 8, !tbaa !39
  store i32 %3, ptr %8, align 4, !tbaa !9
  %9 = load ptr, ptr %5, align 8, !tbaa !88
  %10 = load ptr, ptr %6, align 8, !tbaa !37
  %11 = load ptr, ptr %7, align 8, !tbaa !39
  %12 = load i32, ptr %8, align 4, !tbaa !9
  call void @add_pending_object_with_path(ptr noundef %9, ptr noundef %10, ptr noundef %11, i32 noundef %12, ptr noundef null)
  ret void
}

; Function Attrs: nounwind uwtable
define dso_local void @add_pending_object(ptr noundef %0, ptr noundef %1, ptr noundef %2) #0 {
  %4 = alloca ptr, align 8
  %5 = alloca ptr, align 8
  %6 = alloca ptr, align 8
  store ptr %0, ptr %4, align 8, !tbaa !88
  store ptr %1, ptr %5, align 8, !tbaa !37
  store ptr %2, ptr %6, align 8, !tbaa !39
  %7 = load ptr, ptr %4, align 8, !tbaa !88
  %8 = load ptr, ptr %5, align 8, !tbaa !37
  %9 = load ptr, ptr %6, align 8, !tbaa !39
  call void @add_pending_object_with_mode(ptr noundef %7, ptr noundef %8, ptr noundef %9, i32 noundef 12288)
  ret void
}

; Function Attrs: inlinehint nounwind uwtable
define internal i32 @is_null_oid(ptr noundef %0) #4 {
  %2 = alloca ptr, align 8
  store ptr %0, ptr %2, align 8, !tbaa !54
  %3 = load ptr, ptr %2, align 8, !tbaa !54
  %4 = getelementptr inbounds nuw %struct.object_id, ptr %3, i32 0, i32 0
  %5 = getelementptr inbounds [32 x i8], ptr %4, i64 0, i64 0
  %6 = call i32 @memcmp(ptr noundef %5, ptr noundef @is_null_oid.null_hash, i64 noundef 32) #14
  %7 = icmp ne i32 %6, 0
  %8 = xor i1 %7, true
  %9 = zext i1 %8 to i32
  ret i32 %9
}

; Function Attrs: nounwind uwtable
define internal void @handle_one_reflog_commit(ptr noundef %0, ptr noundef %1) #0 {
  %3 = alloca ptr, align 8
  %4 = alloca ptr, align 8
  %5 = alloca ptr, align 8
  %6 = alloca ptr, align 8
  store ptr %0, ptr %3, align 8, !tbaa !54
  store ptr %1, ptr %4, align 8, !tbaa !21
  call void @llvm.lifetime.start.p0(i64 8, ptr %5) #12
  %7 = load ptr, ptr %4, align 8, !tbaa !21
  store ptr %7, ptr %5, align 8, !tbaa !164
  %8 = load ptr, ptr %3, align 8, !tbaa !54
  %9 = call i32 @is_null_oid(ptr noundef %8)
  %10 = icmp ne i32 %9, 0
  br i1 %10, label %51, label %11

11:                                               ; preds = %2
  call void @llvm.lifetime.start.p0(i64 8, ptr %6) #12
  %12 = load ptr, ptr %5, align 8, !tbaa !164
  %13 = getelementptr inbounds nuw %struct.all_refs_cb, ptr %12, i32 0, i32 2
  %14 = load ptr, ptr %13, align 8, !tbaa !159
  %15 = getelementptr inbounds nuw %struct.rev_info, ptr %14, i32 0, i32 2
  %16 = load ptr, ptr %15, align 8, !tbaa !105
  %17 = load ptr, ptr %3, align 8, !tbaa !54
  %18 = call ptr @parse_object(ptr noundef %16, ptr noundef %17)
  store ptr %18, ptr %6, align 8, !tbaa !37
  %19 = load ptr, ptr %6, align 8, !tbaa !37
  %20 = icmp ne ptr %19, null
  br i1 %20, label %21, label %38

21:                                               ; preds = %11
  %22 = load ptr, ptr %5, align 8, !tbaa !164
  %23 = getelementptr inbounds nuw %struct.all_refs_cb, ptr %22, i32 0, i32 0
  %24 = load i32, ptr %23, align 8, !tbaa !162
  %25 = load ptr, ptr %6, align 8, !tbaa !37
  %26 = load i32, ptr %25, align 4
  %27 = lshr i32 %26, 4
  %28 = or i32 %27, %24
  %29 = load i32, ptr %25, align 4
  %30 = and i32 %28, 268435455
  %31 = shl i32 %30, 4
  %32 = and i32 %29, 15
  %33 = or i32 %32, %31
  store i32 %33, ptr %25, align 4
  %34 = load ptr, ptr %5, align 8, !tbaa !164
  %35 = getelementptr inbounds nuw %struct.all_refs_cb, ptr %34, i32 0, i32 2
  %36 = load ptr, ptr %35, align 8, !tbaa !159
  %37 = load ptr, ptr %6, align 8, !tbaa !37
  call void @add_pending_object(ptr noundef %36, ptr noundef %37, ptr noundef @.str.36)
  br label %50

38:                                               ; preds = %11
  %39 = load ptr, ptr %5, align 8, !tbaa !164
  %40 = getelementptr inbounds nuw %struct.all_refs_cb, ptr %39, i32 0, i32 1
  %41 = load i32, ptr %40, align 4, !tbaa !166
  %42 = icmp ne i32 %41, 0
  br i1 %42, label %49, label %43

43:                                               ; preds = %38
  %44 = load ptr, ptr %5, align 8, !tbaa !164
  %45 = getelementptr inbounds nuw %struct.all_refs_cb, ptr %44, i32 0, i32 3
  %46 = load ptr, ptr %45, align 8, !tbaa !168
  call void (ptr, ...) @warning(ptr noundef @.str.39, ptr noundef %46)
  %47 = load ptr, ptr %5, align 8, !tbaa !164
  %48 = getelementptr inbounds nuw %struct.all_refs_cb, ptr %47, i32 0, i32 1
  store i32 1, ptr %48, align 4, !tbaa !166
  br label %49

49:                                               ; preds = %43, %38
  br label %50

50:                                               ; preds = %49, %21
  call void @llvm.lifetime.end.p0(i64 8, ptr %6) #12
  br label %51

51:                                               ; preds = %50, %2
  call void @llvm.lifetime.end.p0(i64 8, ptr %5) #12
  ret void
}

; Function Attrs: nounwind uwtable
define internal i32 @handle_one_reflog_ent(ptr noundef %0, ptr noundef %1, ptr noundef %2, i64 noundef %3, i32 noundef %4, ptr noundef %5, ptr noundef %6) #0 {
  %8 = alloca ptr, align 8
  %9 = alloca ptr, align 8
  %10 = alloca ptr, align 8
  %11 = alloca i64, align 8
  %12 = alloca i32, align 4
  %13 = alloca ptr, align 8
  %14 = alloca ptr, align 8
  store ptr %0, ptr %8, align 8, !tbaa !54
  store ptr %1, ptr %9, align 8, !tbaa !54
  store ptr %2, ptr %10, align 8, !tbaa !39
  store i64 %3, ptr %11, align 8, !tbaa !34
  store i32 %4, ptr %12, align 4, !tbaa !9
  store ptr %5, ptr %13, align 8, !tbaa !39
  store ptr %6, ptr %14, align 8, !tbaa !21
  %15 = load ptr, ptr %8, align 8, !tbaa !54
  %16 = load ptr, ptr %14, align 8, !tbaa !21
  call void @handle_one_reflog_commit(ptr noundef %15, ptr noundef %16)
  %17 = load ptr, ptr %9, align 8, !tbaa !54
  %18 = load ptr, ptr %14, align 8, !tbaa !21
  call void @handle_one_reflog_commit(ptr noundef %17, ptr noundef %18)
  ret i32 0
}