; Function Attrs: nounwind uwtable
define internal noundef i32 @handle_one_reflog_ent(ptr noundef %0, ptr noundef %1, ptr readnone captures(none) %2, i64 %3, i32 %4, ptr readnone captures(none) %5, ptr noundef captures(none) %6) #2 {
  %bcmp.i.i = tail call i32 @bcmp(ptr noundef nonnull readonly dereferenceable(32) %0, ptr noundef nonnull dereferenceable(32) @is_null_oid.null_hash, i64 32)
  %.not.i.not.i = icmp eq i32 %bcmp.i.i, 0
  br i1 %.not.i.not.i, label %handle_one_reflog_commit.exit, label %8

8:                                                ; preds = %7
  %9 = getelementptr inbounds nuw i8, ptr %6, i64 8
  %10 = load ptr, ptr %9, align 8, !tbaa !123
  %11 = getelementptr inbounds nuw i8, ptr %10, i64 24
  %12 = load ptr, ptr %11, align 8, !tbaa !73
  %13 = tail call ptr @parse_object(ptr noundef %12, ptr noundef nonnull %0) #26
  %.not12.i = icmp eq ptr %13, null
  br i1 %.not12.i, label %20, label %14

14:                                               ; preds = %8
  %15 = load i32, ptr %6, align 8, !tbaa !127
  %16 = load i32, ptr %13, align 4
  %17 = shl i32 %15, 4
  %18 = or i32 %16, %17
  store i32 %18, ptr %13, align 4
  %19 = load ptr, ptr %9, align 8, !tbaa !123
  tail call fastcc void @add_pending_object_with_path(ptr noundef %19, ptr noundef nonnull %13, ptr noundef nonnull @.str.36, i32 noundef 12288, ptr noundef null)
  br label %handle_one_reflog_commit.exit

20:                                               ; preds = %8
  %21 = getelementptr inbounds nuw i8, ptr %6, i64 4
  %22 = load i32, ptr %21, align 4, !tbaa !133
  %.not13.i = icmp eq i32 %22, 0
  br i1 %.not13.i, label %23, label %handle_one_reflog_commit.exit

23:                                               ; preds = %20
  %24 = getelementptr inbounds nuw i8, ptr %6, i64 16
  %25 = load ptr, ptr %24, align 8, !tbaa !135
  tail call void (ptr, ...) @warning(ptr noundef nonnull @.str.39, ptr noundef %25) #26
  store i32 1, ptr %21, align 4, !tbaa !133
  br label %handle_one_reflog_commit.exit

handle_one_reflog_commit.exit:                    ; preds = %7, %14, %20, %23
  %bcmp.i.i4 = tail call i32 @bcmp(ptr noundef nonnull readonly dereferenceable(32) %1, ptr noundef nonnull dereferenceable(32) @is_null_oid.null_hash, i64 32)
  %.not.i.not.i5 = icmp eq i32 %bcmp.i.i4, 0
  br i1 %.not.i.not.i5, label %handle_one_reflog_commit.exit8, label %26

26:                                               ; preds = %handle_one_reflog_commit.exit
  %27 = getelementptr inbounds nuw i8, ptr %6, i64 8
  %28 = load ptr, ptr %27, align 8, !tbaa !123
  %29 = getelementptr inbounds nuw i8, ptr %28, i64 24
  %30 = load ptr, ptr %29, align 8, !tbaa !73
  %31 = tail call ptr @parse_object(ptr noundef %30, ptr noundef nonnull %1) #26
  %.not12.i6 = icmp eq ptr %31, null
  br i1 %.not12.i6, label %38, label %32

32:                                               ; preds = %26
  %33 = load i32, ptr %6, align 8, !tbaa !127
  %34 = load i32, ptr %31, align 4
  %35 = shl i32 %33, 4
  %36 = or i32 %34, %35
  store i32 %36, ptr %31, align 4
  %37 = load ptr, ptr %27, align 8, !tbaa !123
  tail call fastcc void @add_pending_object_with_path(ptr noundef %37, ptr noundef nonnull %31, ptr noundef nonnull @.str.36, i32 noundef 12288, ptr noundef null)
  br label %handle_one_reflog_commit.exit8

38:                                               ; preds = %26
  %39 = getelementptr inbounds nuw i8, ptr %6, i64 4
  %40 = load i32, ptr %39, align 4, !tbaa !133
  %.not13.i7 = icmp eq i32 %40, 0
  br i1 %.not13.i7, label %41, label %handle_one_reflog_commit.exit8

41:                                               ; preds = %38
  %42 = getelementptr inbounds nuw i8, ptr %6, i64 16
  %43 = load ptr, ptr %42, align 8, !tbaa !135
  tail call void (ptr, ...) @warning(ptr noundef nonnull @.str.39, ptr noundef %43) #26
  store i32 1, ptr %39, align 4, !tbaa !133
  br label %handle_one_reflog_commit.exit8

handle_one_reflog_commit.exit8:                   ; preds = %handle_one_reflog_commit.exit, %32, %38, %41
  ret i32 0
}